; Function Attrs: nounwind sspstrong uwtable
define dso_local void @block_job_ratelimit_processed_bytes(ptr noundef %0, i64 noundef %1) local_unnamed_addr #0 {
  %3 = getelementptr inbounds nuw i8, ptr %0, i64 296
  %4 = tail call i64 @qemu_clock_get_ns(i32 noundef 0) #8
  %5 = load atomic i64, ptr @qemu_mutex_lock_func monotonic, align 8
  %6 = inttoptr i64 %5 to ptr
  tail call void %6(ptr noundef nonnull %3, ptr noundef nonnull @.str.13, i32 noundef 56) #8
  %7 = getelementptr inbounds nuw i8, ptr %0, i64 360
  %8 = load i64, ptr %7, align 8
  %.not.i = icmp eq i64 %8, 0
  br i1 %.not.i, label %ratelimit_calculate_delay.exit, label %9

9:                                                ; preds = %2
  %10 = getelementptr inbounds nuw i8, ptr %0, i64 368
  %11 = load i64, ptr %10, align 8
  %.not27.i = icmp eq i64 %11, 0
  br i1 %.not27.i, label %12, label %13

12:                                               ; preds = %9
  tail call void @__assert_fail(ptr noundef nonnull @.str.16, ptr noundef nonnull @.str.17, i32 noundef 50, ptr noundef nonnull @__PRETTY_FUNCTION__.ratelimit_calculate_delay) #9
  unreachable

13:                                               ; preds = %9
  %14 = getelementptr inbounds nuw i8, ptr %0, i64 352
  %15 = load i64, ptr %14, align 8
  %16 = icmp slt i64 %15, %4
  br i1 %16, label %17, label %._crit_edge.i

._crit_edge.i:                                    ; preds = %13
  %.phi.trans.insert.i = getelementptr inbounds nuw i8, ptr %0, i64 376
  %.pre.i = load i64, ptr %.phi.trans.insert.i, align 8
  br label %20

17:                                               ; preds = %13
  %18 = getelementptr inbounds nuw i8, ptr %0, i64 344
  store i64 %4, ptr %18, align 8
  %19 = add i64 %11, %4
  store i64 %19, ptr %14, align 8
  br label %20

20:                                               ; preds = %17, %._crit_edge.i
  %21 = phi i64 [ %.pre.i, %._crit_edge.i ], [ 0, %17 ]
  %22 = getelementptr inbounds nuw i8, ptr %0, i64 376
  %23 = add i64 %21, %1
  store i64 %23, ptr %22, align 8
  %24 = icmp ult i64 %23, %8
  br i1 %24, label %ratelimit_calculate_delay.exit, label %25

25:                                               ; preds = %20
  %26 = uitofp i64 %23 to double
  %27 = uitofp i64 %8 to double
  %28 = fdiv double %26, %27
  %29 = getelementptr inbounds nuw i8, ptr %0, i64 344
  %30 = load i64, ptr %29, align 8
  %31 = uitofp i64 %11 to double
  %32 = fmul double %28, %31
  %33 = fptoui double %32 to i64
  %34 = add i64 %30, %33
  store i64 %34, ptr %14, align 8
  br label %ratelimit_calculate_delay.exit

ratelimit_calculate_delay.exit:                   ; preds = %2, %20, %25
  tail call void @qemu_mutex_unlock_impl(ptr noundef nonnull %3, ptr noundef nonnull @.str.13, i32 noundef 56) #8
  ret void
}